Certificate:
    Data:
        Version: 3 (0x2)
        Serial Number: 1 (0x1)
        Signature Algorithm: sha1WithRSAEncryption
        Issuer: C=CN, ST=CHONGQING, L=CHONGQING, O=acooly.cn, OU=it, CN=acooly.cn/emailAddress=pu.zhang@foxmail.com
        Validity
            Not Before: Oct  8 04:24:10 2017 GMT
            Not After : Oct  8 04:24:10 2018 GMT
        Subject: C=CN, ST=CHONGQING, O=acooly.cn, OU=it, CN=acooly.cn/emailAddress=pu.zhang@foxmail.com
        Subject Public Key Info:
            Public Key Algorithm: rsaEncryption
            RSA Public Key: (1024 bit)
                Modulus (1024 bit):
                    00:bf:04:b5:51:53:13:ac:e6:25:31:85:a8:11:8b:
                    61:d9:59:07:66:8a:1a:f4:85:ff:37:79:d0:cf:42:
                    8e:ef:10:87:6d:30:c7:df:71:80:ab:ce:50:ff:39:
                    e0:44:84:90:97:84:a9:79:f8:6b:06:ff:49:3f:73:
                    39:06:f2:26:51:7d:e1:b8:3e:7b:e8:4d:71:90:cc:
                    c0:4e:66:03:6b:95:f2:78:c4:1d:c1:56:58:e8:37:
                    ef:30:11:25:ad:cb:85:b2:c8:51:11:96:e0:30:4d:
                    77:f6:0b:71:91:d0:75:9e:12:bd:8c:95:2a:47:b2:
                    92:38:43:82:12:62:e7:2b:1b
                Exponent: 65537 (0x10001)
        X509v3 extensions:
            X509v3 Basic Constraints: 
                CA:FALSE
            Netscape Comment: 
                OpenSSL Generated Certificate
            X509v3 Subject Key Identifier: 
                D5:15:7C:91:BE:7F:C8:32:21:63:41:FA:73:C3:C1:1B:12:3F:5E:62
            X509v3 Authority Key Identifier: 
                keyid:D4:D8:C2:9F:03:52:DD:C6:23:24:9A:1B:43:46:2B:30:A7:2D:61:96

    Signature Algorithm: sha1WithRSAEncryption
        2e:4c:b6:2d:01:4f:55:19:55:89:fc:a9:a5:9b:b8:b5:56:0a:
        bd:ed:61:43:65:00:8c:e7:df:d0:97:27:dd:e4:13:8b:03:cc:
        1c:7e:1b:59:59:9d:26:a6:c4:16:49:d8:d9:ca:a0:e7:c5:8e:
        35:d1:4c:61:88:b8:98:43:95:b3:e7:b0:89:98:f3:1d:53:ee:
        b0:ab:d2:c6:48:1c:1f:ed:12:23:53:63:92:8e:8b:24:6a:f4:
        ac:45:b9:aa:a6:fd:e1:7a:3d:99:01:2f:48:d2:1f:26:32:14:
        9b:71:24:a4:0a:1d:87:38:8c:27:92:4f:c8:43:38:d8:70:5e:
        81:7e
-----BEGIN CERTIFICATE-----
MIIC/DCCAmWgAwIBAgIBATANBgkqhkiG9w0BAQUFADCBjzELMAkGA1UEBhMCQ04x
EjAQBgNVBAgTCUNIT05HUUlORzESMBAGA1UEBxMJQ0hPTkdRSU5HMRIwEAYDVQQK
EwlhY29vbHkuY24xCzAJBgNVBAsTAml0MRIwEAYDVQQDEwlhY29vbHkuY24xIzAh
BgkqhkiG9w0BCQEWFHB1LnpoYW5nQGZveG1haWwuY29tMB4XDTE3MTAwODA0MjQx
MFoXDTE4MTAwODA0MjQxMFowezELMAkGA1UEBhMCQ04xEjAQBgNVBAgTCUNIT05H
UUlORzESMBAGA1UEChMJYWNvb2x5LmNuMQswCQYDVQQLEwJpdDESMBAGA1UEAxMJ
YWNvb2x5LmNuMSMwIQYJKoZIhvcNAQkBFhRwdS56aGFuZ0Bmb3htYWlsLmNvbTCB
nzANBgkqhkiG9w0BAQEFAAOBjQAwgYkCgYEAvwS1UVMTrOYlMYWoEYth2VkHZooa
9IX/N3nQz0KO7xCHbTDH33GAq85Q/zngRISQl4SpefhrBv9JP3M5BvImUX3huD57
6E1xkMzATmYDa5XyeMQdwVZY6DfvMBElrcuFsshREZbgME139gtxkdB1nhK9jJUq
R7KSOEOCEmLnKxsCAwEAAaN7MHkwCQYDVR0TBAIwADAsBglghkgBhvhCAQ0EHxYd
T3BlblNTTCBHZW5lcmF0ZWQgQ2VydGlmaWNhdGUwHQYDVR0OBBYEFNUVfJG+f8gy
IWNB+nPDwRsSP15iMB8GA1UdIwQYMBaAFNTYwp8DUt3GIySaG0NGKzCnLWGWMA0G
CSqGSIb3DQEBBQUAA4GBAC5Mti0BT1UZVYn8qaWbuLVWCr3tYUNlAIzn39CXJ93k
E4sDzBx+G1lZnSamxBZJ2NnKoOfFjjXRTGGIuJhDlbPnsImY8x1T7rCr0sZIHB/t
EiNTY5KOiyRq9KxFuaqm/eF6PZkBL0jSHyYyFJtxJKQKHYc4jCeST8hDONhwXoF+
-----END CERTIFICATE-----
